target datalayout = "e-m:e-p270:32:32-p271:32:32-p272:64:64-i64:64-i128:128-f80:128-n8:16:32:64-S128"
target triple = "x86_64-pc-linux-gnu"

%"class.Ipopt::TNLPReducer" = type { %"class.Ipopt::TNLP.base", %"class.Ipopt::SmartPtr", i32, i32, i32, ptr, i32, ptr, i32, i32, i32, ptr, i32, ptr, i32, ptr, i32, ptr }
%"class.Ipopt::TNLP.base" = type { %"class.Ipopt::ReferencedObject.base" }
%"class.Ipopt::ReferencedObject.base" = type <{ ptr, i32 }>
%"class.Ipopt::SmartPtr" = type { ptr }

; Function Attrs: mustprogress nounwind uwtable
define linkonce_odr noundef ptr @_ZNK5Ipopt8SmartPtrINS_4TNLPEEptEv(ptr noundef nonnull align 8 dereferenceable(8) %0) #3 comdat align 2 {
  %2 = alloca ptr, align 8
  store ptr %0, ptr %2, align 8
  %3 = load ptr, ptr %2, align 8
  %4 = getelementptr inbounds %"class.Ipopt::SmartPtr", ptr %3, i32 0, i32 0
  %5 = load ptr, ptr %4, align 8
  ret ptr %5
}

; Function Attrs: mustprogress uwtable
define noundef zeroext i1 @_ZN5Ipopt11TNLPReducer25get_constraints_linearityEiPNS_4TNLP13LinearityTypeE(ptr noundef nonnull align 8 dereferenceable(136) %0, i32 noundef %1, ptr noundef %2) unnamed_addr #0 align 2 {
  %4 = alloca ptr, align 8
  %5 = alloca i32, align 4
  %6 = alloca ptr, align 8
  %7 = alloca ptr, align 8
  %8 = alloca i8, align 1
  %9 = alloca i32, align 4
  %10 = alloca ptr, align 8
  store ptr %0, ptr %4, align 8
  store i32 %1, ptr %5, align 4
  store ptr %2, ptr %6, align 8
  %11 = load ptr, ptr %4, align 8
  %12 = getelementptr inbounds %"class.Ipopt::TNLPReducer", ptr %11, i32 0, i32 2
  %13 = load i32, ptr %12, align 8
  %14 = sext i32 %13 to i64
  %15 = call { i64, i1 } @llvm.umul.with.overflow.i64(i64 %14, i64 4)
  %16 = extractvalue { i64, i1 } %15, 1
  %17 = extractvalue { i64, i1 } %15, 0
  %18 = select i1 %16, i64 -1, i64 %17
  %19 = call noalias noundef nonnull ptr @_Znam(i64 noundef %18) #8
  store ptr %19, ptr %7, align 8
  %20 = getelementptr inbounds %"class.Ipopt::TNLPReducer", ptr %11, i32 0, i32 1
  %21 = call noundef ptr @_ZNK5Ipopt8SmartPtrINS_4TNLPEEptEv(ptr noundef nonnull align 8 dereferenceable(8) %20)
  %22 = getelementptr inbounds %"class.Ipopt::TNLPReducer", ptr %11, i32 0, i32 2
  %23 = load i32, ptr %22, align 8
  %24 = load ptr, ptr %7, align 8
  %25 = load ptr, ptr %21, align 8
  %26 = getelementptr inbounds ptr, ptr %25, i64 7
  %27 = load ptr, ptr %26, align 8
  %28 = call noundef zeroext i1 %27(ptr noundef nonnull align 8 dereferenceable(12) %21, i32 noundef %23, ptr noundef %24)
  %29 = zext i1 %28 to i8
  store i8 %29, ptr %8, align 1
  %30 = load i8, ptr %8, align 1
  %31 = trunc i8 %30 to i1
  br i1 %31, label %32, label %63

32:                                               ; preds = %3
  store i32 0, ptr %9, align 4
  br label %33

33:                                               ; preds = %59, %32
  %34 = load i32, ptr %9, align 4
  %35 = getelementptr inbounds %"class.Ipopt::TNLPReducer", ptr %11, i32 0, i32 2
  %36 = load i32, ptr %35, align 8
  %37 = icmp slt i32 %34, %36
  br i1 %37, label %38, label %62

38:                                               ; preds = %33
  %39 = getelementptr inbounds %"class.Ipopt::TNLPReducer", ptr %11, i32 0, i32 7
  %40 = load ptr, ptr %39, align 8
  %41 = load i32, ptr %9, align 4
  %42 = sext i32 %41 to i64
  %43 = getelementptr inbounds i32, ptr %40, i64 %42
  store ptr %43, ptr %10, align 8
  %44 = load ptr, ptr %10, align 8
  %45 = load i32, ptr %44, align 4
  %46 = icmp sge i32 %45, 0
  br i1 %46, label %47, label %58

47:                                               ; preds = %38
  %48 = load ptr, ptr %7, align 8
  %49 = load i32, ptr %9, align 4
  %50 = sext i32 %49 to i64
  %51 = getelementptr inbounds i32, ptr %48, i64 %50
  %52 = load i32, ptr %51, align 4
  %53 = load ptr, ptr %6, align 8
  %54 = load ptr, ptr %10, align 8
  %55 = load i32, ptr %54, align 4
  %56 = sext i32 %55 to i64
  %57 = getelementptr inbounds i32, ptr %53, i64 %56
  store i32 %52, ptr %57, align 4
  br label %58

58:                                               ; preds = %47, %38
  br label %59

59:                                               ; preds = %58
  %60 = load i32, ptr %9, align 4
  %61 = add nsw i32 %60, 1
  store i32 %61, ptr %9, align 4
  br label %33, !llvm.loop !18

62:                                               ; preds = %33
  br label %63

63:                                               ; preds = %62, %3
  %64 = load ptr, ptr %7, align 8
  %65 = icmp eq ptr %64, null
  br i1 %65, label %67, label %66

66:                                               ; preds = %63
  call void @_ZdaPv(ptr noundef %64) #11
  br label %67

67:                                               ; preds = %66, %63
  %68 = load i8, ptr %8, align 1
  %69 = trunc i8 %68 to i1
  ret i1 %69
}