; Function Attrs: mustprogress uwtable
define noundef zeroext i1 @_ZN5Ipopt11TNLPReducer25get_constraints_linearityEiPNS_4TNLP13LinearityTypeE(ptr nocapture noundef nonnull readonly align 8 dereferenceable(136) %0, i32 %1, ptr nocapture noundef writeonly %2) unnamed_addr #0 align 2 {
  %4 = getelementptr inbounds i8, ptr %0, i64 24
  %5 = load i32, ptr %4, align 8
  %6 = sext i32 %5 to i64
  %7 = icmp slt i32 %5, 0
  %8 = shl nsw i64 %6, 2
  %9 = select i1 %7, i64 -1, i64 %8
  %10 = tail call noalias noundef nonnull ptr @_Znam(i64 noundef %9) #8
  %11 = getelementptr inbounds i8, ptr %0, i64 16
  %12 = load ptr, ptr %11, align 8
  %13 = load ptr, ptr %12, align 8
  %14 = getelementptr inbounds i8, ptr %13, i64 56
  %15 = load ptr, ptr %14, align 8
  %16 = tail call noundef zeroext i1 %15(ptr noundef nonnull align 8 dereferenceable(12) %12, i32 noundef %5, ptr noundef nonnull %10)
  %17 = load i32, ptr %4, align 8
  %18 = icmp sgt i32 %17, 0
  %or.cond = select i1 %16, i1 %18, i1 false
  br i1 %or.cond, label %.lr.ph, label %.loopexit

.lr.ph:                                           ; preds = %3
  %19 = getelementptr inbounds i8, ptr %0, i64 56
  br label %20

20:                                               ; preds = %.lr.ph, %31
  %21 = phi i32 [ %17, %.lr.ph ], [ %32, %31 ]
  %indvars.iv = phi i64 [ 0, %.lr.ph ], [ %indvars.iv.next, %31 ]
  %22 = load ptr, ptr %19, align 8
  %23 = getelementptr inbounds i32, ptr %22, i64 %indvars.iv
  %24 = load i32, ptr %23, align 4
  %25 = icmp sgt i32 %24, -1
  br i1 %25, label %26, label %31

26:                                               ; preds = %20
  %27 = getelementptr inbounds i32, ptr %10, i64 %indvars.iv
  %28 = load i32, ptr %27, align 4
  %29 = zext nneg i32 %24 to i64
  %30 = getelementptr inbounds i32, ptr %2, i64 %29
  store i32 %28, ptr %30, align 4
  %.pre = load i32, ptr %4, align 8
  br label %31

31:                                               ; preds = %20, %26
  %32 = phi i32 [ %21, %20 ], [ %.pre, %26 ]
  %indvars.iv.next = add nuw nsw i64 %indvars.iv, 1
  %33 = sext i32 %32 to i64
  %34 = icmp slt i64 %indvars.iv.next, %33
  br i1 %34, label %20, label %.loopexit, !llvm.loop !18

.loopexit:                                        ; preds = %31, %3
  tail call void @_ZdaPv(ptr noundef nonnull %10) #9
  ret i1 %16
}